target datalayout = "e-m:e-p270:32:32-p271:32:32-p272:64:64-i64:64-i128:128-f80:128-n8:16:32:64-S128"
target triple = "x86_64-pc-linux-gnu"

@.str.7 = private unnamed_addr constant [1 x i8] zeroinitializer, align 1
@.str.8 = private unnamed_addr constant [4 x i8] c"...\00", align 1
@.str.9 = private unnamed_addr constant [3 x i8] c"\0A\0D\00", align 1
@.str.10 = private unnamed_addr constant [10 x i8] c"[string \22\00", align 1
@.str.11 = private unnamed_addr constant [3 x i8] c"\22]\00", align 1

; Function Attrs: nounwind uwtable
define internal void @luaO_chunkid(ptr noundef %0, ptr noundef %1, i64 noundef %2) #0 {
  %4 = alloca ptr, align 8
  %5 = alloca ptr, align 8
  %6 = alloca i64, align 8
  %7 = alloca i64, align 8
  %8 = alloca i64, align 8
  store ptr %0, ptr %4, align 8, !tbaa !13
  store ptr %1, ptr %5, align 8, !tbaa !13
  store i64 %2, ptr %6, align 8, !tbaa !53
  %9 = load ptr, ptr %5, align 8, !tbaa !13
  %10 = load i8, ptr %9, align 1, !tbaa !45
  %11 = sext i8 %10 to i32
  %12 = icmp eq i32 %11, 61
  br i1 %12, label %13, label %23

13:                                               ; preds = %3
  %14 = load ptr, ptr %4, align 8, !tbaa !13
  %15 = load ptr, ptr %5, align 8, !tbaa !13
  %16 = getelementptr inbounds i8, ptr %15, i64 1
  %17 = load i64, ptr %6, align 8, !tbaa !53
  %18 = call ptr @strncpy(ptr noundef %14, ptr noundef %16, i64 noundef %17) #14
  %19 = load ptr, ptr %4, align 8, !tbaa !13
  %20 = load i64, ptr %6, align 8, !tbaa !53
  %21 = sub i64 %20, 1
  %22 = getelementptr inbounds nuw i8, ptr %19, i64 %21
  store i8 0, ptr %22, align 1, !tbaa !45
  br label %86

23:                                               ; preds = %3
  %24 = load ptr, ptr %5, align 8, !tbaa !13
  %25 = load i8, ptr %24, align 1, !tbaa !45
  %26 = sext i8 %25 to i32
  %27 = icmp eq i32 %26, 64
  br i1 %27, label %28, label %52

28:                                               ; preds = %23
  call void @llvm.lifetime.start.p0(i64 8, ptr %7) #14
  %29 = load ptr, ptr %5, align 8, !tbaa !13
  %30 = getelementptr inbounds nuw i8, ptr %29, i32 1
  store ptr %30, ptr %5, align 8, !tbaa !13
  %31 = load i64, ptr %6, align 8, !tbaa !53
  %32 = sub i64 %31, 8
  store i64 %32, ptr %6, align 8, !tbaa !53
  %33 = load ptr, ptr %5, align 8, !tbaa !13
  %34 = call i64 @strlen(ptr noundef %33) #15
  store i64 %34, ptr %7, align 8, !tbaa !53
  %35 = load ptr, ptr %4, align 8, !tbaa !13
  %36 = call ptr @strcpy(ptr noundef %35, ptr noundef @.str.7) #14
  %37 = load i64, ptr %7, align 8, !tbaa !53
  %38 = load i64, ptr %6, align 8, !tbaa !53
  %39 = icmp ugt i64 %37, %38
  br i1 %39, label %40, label %48

40:                                               ; preds = %28
  %41 = load i64, ptr %7, align 8, !tbaa !53
  %42 = load i64, ptr %6, align 8, !tbaa !53
  %43 = sub i64 %41, %42
  %44 = load ptr, ptr %5, align 8, !tbaa !13
  %45 = getelementptr inbounds nuw i8, ptr %44, i64 %43
  store ptr %45, ptr %5, align 8, !tbaa !13
  %46 = load ptr, ptr %4, align 8, !tbaa !13
  %47 = call ptr @strcat(ptr noundef %46, ptr noundef @.str.8) #14
  br label %48

48:                                               ; preds = %40, %28
  %49 = load ptr, ptr %4, align 8, !tbaa !13
  %50 = load ptr, ptr %5, align 8, !tbaa !13
  %51 = call ptr @strcat(ptr noundef %49, ptr noundef %50) #14
  call void @llvm.lifetime.end.p0(i64 8, ptr %7) #14
  br label %85

52:                                               ; preds = %23
  call void @llvm.lifetime.start.p0(i64 8, ptr %8) #14
  %53 = load ptr, ptr %5, align 8, !tbaa !13
  %54 = call i64 @strcspn(ptr noundef %53, ptr noundef @.str.9) #15
  store i64 %54, ptr %8, align 8, !tbaa !53
  %55 = load i64, ptr %6, align 8, !tbaa !53
  %56 = sub i64 %55, 17
  store i64 %56, ptr %6, align 8, !tbaa !53
  %57 = load i64, ptr %8, align 8, !tbaa !53
  %58 = load i64, ptr %6, align 8, !tbaa !53
  %59 = icmp ugt i64 %57, %58
  br i1 %59, label %60, label %62

60:                                               ; preds = %52
  %61 = load i64, ptr %6, align 8, !tbaa !53
  store i64 %61, ptr %8, align 8, !tbaa !53
  br label %62

62:                                               ; preds = %60, %52
  %63 = load ptr, ptr %4, align 8, !tbaa !13
  %64 = call ptr @strcpy(ptr noundef %63, ptr noundef @.str.10) #14
  %65 = load ptr, ptr %5, align 8, !tbaa !13
  %66 = load i64, ptr %8, align 8, !tbaa !53
  %67 = getelementptr inbounds nuw i8, ptr %65, i64 %66
  %68 = load i8, ptr %67, align 1, !tbaa !45
  %69 = sext i8 %68 to i32
  %70 = icmp ne i32 %69, 0
  br i1 %70, label %71, label %78

71:                                               ; preds = %62
  %72 = load ptr, ptr %4, align 8, !tbaa !13
  %73 = load ptr, ptr %5, align 8, !tbaa !13
  %74 = load i64, ptr %8, align 8, !tbaa !53
  %75 = call ptr @strncat(ptr noundef %72, ptr noundef %73, i64 noundef %74) #14
  %76 = load ptr, ptr %4, align 8, !tbaa !13
  %77 = call ptr @strcat(ptr noundef %76, ptr noundef @.str.8) #14
  br label %82

78:                                               ; preds = %62
  %79 = load ptr, ptr %4, align 8, !tbaa !13
  %80 = load ptr, ptr %5, align 8, !tbaa !13
  %81 = call ptr @strcat(ptr noundef %79, ptr noundef %80) #14
  br label %82

82:                                               ; preds = %78, %71
  %83 = load ptr, ptr %4, align 8, !tbaa !13
  %84 = call ptr @strcat(ptr noundef %83, ptr noundef @.str.11) #14
  call void @llvm.lifetime.end.p0(i64 8, ptr %8) #14
  br label %85

85:                                               ; preds = %82, %48
  br label %86

86:                                               ; preds = %85, %13
  ret void
}